target datalayout = "e-m:e-p270:32:32-p271:32:32-p272:64:64-i64:64-i128:128-f80:128-n8:16:32:64-S128"
target triple = "x86_64-pc-linux-gnu"

%struct._address = type { i32, i32, ptr, ptr }
%struct._packet_info = type { ptr, ptr, i32, i32, %struct.nstime_t, %struct.nstime_t, %struct.nstime_t, i8, ptr, ptr, ptr, ptr, %struct._address, %struct._address, %struct._address, %struct._address, %struct._address, %struct._address, i32, ptr, i8, [3 x i8], %struct.anon, i32, i32, i32, i32, ptr, i8, ptr, ptr, i16, i16, i32, i32, i16, i32, i32, ptr, ptr, ptr, i8, i8, i16, i16, i16, i32, i16, i16, ptr, ptr, ptr, ptr, ptr, i32, i32 }
%struct.nstime_t = type { i64, i32 }
%struct.anon = type { i8, [3 x i8] }
%struct._rpc_conv_info_t = type { ptr }
%struct._rpc_call_info_value = type { i32, i32, i32, i32, i32, i32, i32, i32, i32, i8, %struct.nstime_t, ptr }

@proto_rpc = internal global i32 0, align 4
@rpc_find_fragment_start = internal global i8 0, align 1
@null_address = internal global %struct._address zeroinitializer, align 8

; Function Attrs: null_pointer_is_valid sspstrong uwtable
define internal ptr @new_conversation_for_reply(ptr noundef %0) #0 {
  %2 = alloca ptr, align 8
  %3 = alloca ptr, align 8
  store ptr %0, ptr %2, align 8
  call void @llvm.lifetime.start.p0(i64 8, ptr %3) #18
  %4 = load ptr, ptr %2, align 8
  %5 = getelementptr inbounds nuw %struct._packet_info, ptr %4, i32 0, i32 23
  %6 = load i32, ptr %5, align 8
  switch i32 %6, label %52 [
    i32 2, label %7
    i32 10, label %22
    i32 12, label %37
  ]

7:                                                ; preds = %1
  %8 = load ptr, ptr %2, align 8
  %9 = getelementptr inbounds nuw %struct._packet_info, ptr %8, i32 0, i32 3
  %10 = load i32, ptr %9, align 4
  %11 = load ptr, ptr %2, align 8
  %12 = getelementptr inbounds nuw %struct._packet_info, ptr %11, i32 0, i32 16
  %13 = load ptr, ptr %2, align 8
  %14 = getelementptr inbounds nuw %struct._packet_info, ptr %13, i32 0, i32 17
  %15 = load ptr, ptr %2, align 8
  %16 = getelementptr inbounds nuw %struct._packet_info, ptr %15, i32 0, i32 24
  %17 = load i32, ptr %16, align 4
  %18 = load ptr, ptr %2, align 8
  %19 = getelementptr inbounds nuw %struct._packet_info, ptr %18, i32 0, i32 25
  %20 = load i32, ptr %19, align 8
  %21 = call ptr @conversation_new(i32 noundef %10, ptr noundef %12, ptr noundef %14, i32 noundef 2, i32 noundef %17, i32 noundef %20, i32 noundef 0)
  store ptr %21, ptr %3, align 8
  br label %66

22:                                               ; preds = %1
  %23 = load ptr, ptr %2, align 8
  %24 = getelementptr inbounds nuw %struct._packet_info, ptr %23, i32 0, i32 3
  %25 = load i32, ptr %24, align 4
  %26 = load ptr, ptr %2, align 8
  %27 = getelementptr inbounds nuw %struct._packet_info, ptr %26, i32 0, i32 16
  %28 = load ptr, ptr %2, align 8
  %29 = getelementptr inbounds nuw %struct._packet_info, ptr %28, i32 0, i32 17
  %30 = load ptr, ptr %2, align 8
  %31 = getelementptr inbounds nuw %struct._packet_info, ptr %30, i32 0, i32 24
  %32 = load i32, ptr %31, align 4
  %33 = load ptr, ptr %2, align 8
  %34 = getelementptr inbounds nuw %struct._packet_info, ptr %33, i32 0, i32 25
  %35 = load i32, ptr %34, align 8
  %36 = call ptr @conversation_new(i32 noundef %25, ptr noundef %27, ptr noundef %29, i32 noundef 14, i32 noundef %32, i32 noundef %35, i32 noundef 0)
  store ptr %36, ptr %3, align 8
  br label %66

37:                                               ; preds = %1
  %38 = load ptr, ptr %2, align 8
  %39 = getelementptr inbounds nuw %struct._packet_info, ptr %38, i32 0, i32 3
  %40 = load i32, ptr %39, align 4
  %41 = load ptr, ptr %2, align 8
  %42 = getelementptr inbounds nuw %struct._packet_info, ptr %41, i32 0, i32 16
  %43 = load ptr, ptr %2, align 8
  %44 = getelementptr inbounds nuw %struct._packet_info, ptr %43, i32 0, i32 17
  %45 = load ptr, ptr %2, align 8
  %46 = getelementptr inbounds nuw %struct._packet_info, ptr %45, i32 0, i32 24
  %47 = load i32, ptr %46, align 4
  %48 = load ptr, ptr %2, align 8
  %49 = getelementptr inbounds nuw %struct._packet_info, ptr %48, i32 0, i32 25
  %50 = load i32, ptr %49, align 8
  %51 = call ptr @conversation_new(i32 noundef %40, ptr noundef %42, ptr noundef %44, i32 noundef 29, i32 noundef %47, i32 noundef %50, i32 noundef 0)
  store ptr %51, ptr %3, align 8
  br label %66

52:                                               ; preds = %1
  %53 = load ptr, ptr %2, align 8
  %54 = getelementptr inbounds nuw %struct._packet_info, ptr %53, i32 0, i32 3
  %55 = load i32, ptr %54, align 4
  %56 = load ptr, ptr %2, align 8
  %57 = getelementptr inbounds nuw %struct._packet_info, ptr %56, i32 0, i32 17
  %58 = load ptr, ptr %2, align 8
  %59 = getelementptr inbounds nuw %struct._packet_info, ptr %58, i32 0, i32 23
  %60 = load i32, ptr %59, align 8
  %61 = call i32 @conversation_pt_to_conversation_type(i32 noundef %60)
  %62 = load ptr, ptr %2, align 8
  %63 = getelementptr inbounds nuw %struct._packet_info, ptr %62, i32 0, i32 24
  %64 = load i32, ptr %63, align 4
  %65 = call ptr @conversation_new(i32 noundef %55, ptr noundef %57, ptr noundef @null_address, i32 noundef %61, i32 noundef %64, i32 noundef 0, i32 noundef 3)
  store ptr %65, ptr %3, align 8
  br label %66

66:                                               ; preds = %52, %37, %22, %7
  %67 = load ptr, ptr %3, align 8
  call void @llvm.lifetime.end.p0(i64 8, ptr %3) #18
  ret ptr %67
}

; Function Attrs: null_pointer_is_valid sspstrong uwtable
define internal ptr @find_conversation_for_reply(ptr noundef %0) #0 {
  %2 = alloca ptr, align 8
  %3 = alloca ptr, align 8
  store ptr %0, ptr %2, align 8
  call void @llvm.lifetime.start.p0(i64 8, ptr %3) #18
  %4 = load ptr, ptr %2, align 8
  %5 = getelementptr inbounds nuw %struct._packet_info, ptr %4, i32 0, i32 23
  %6 = load i32, ptr %5, align 8
  %7 = icmp eq i32 %6, 2
  br i1 %7, label %18, label %8

8:                                                ; preds = %1
  %9 = load ptr, ptr %2, align 8
  %10 = getelementptr inbounds nuw %struct._packet_info, ptr %9, i32 0, i32 23
  %11 = load i32, ptr %10, align 8
  %12 = icmp eq i32 %11, 10
  br i1 %12, label %18, label %13

13:                                               ; preds = %8
  %14 = load ptr, ptr %2, align 8
  %15 = getelementptr inbounds nuw %struct._packet_info, ptr %14, i32 0, i32 23
  %16 = load i32, ptr %15, align 8
  %17 = icmp eq i32 %16, 12
  br i1 %17, label %18, label %21

18:                                               ; preds = %13, %8, %1
  %19 = load ptr, ptr %2, align 8
  %20 = call ptr @find_conversation_pinfo(ptr noundef %19, i32 noundef 0)
  store ptr %20, ptr %3, align 8
  br label %35

21:                                               ; preds = %13
  %22 = load ptr, ptr %2, align 8
  %23 = getelementptr inbounds nuw %struct._packet_info, ptr %22, i32 0, i32 3
  %24 = load i32, ptr %23, align 4
  %25 = load ptr, ptr %2, align 8
  %26 = getelementptr inbounds nuw %struct._packet_info, ptr %25, i32 0, i32 17
  %27 = load ptr, ptr %2, align 8
  %28 = getelementptr inbounds nuw %struct._packet_info, ptr %27, i32 0, i32 23
  %29 = load i32, ptr %28, align 8
  %30 = call i32 @conversation_pt_to_conversation_type(i32 noundef %29)
  %31 = load ptr, ptr %2, align 8
  %32 = getelementptr inbounds nuw %struct._packet_info, ptr %31, i32 0, i32 24
  %33 = load i32, ptr %32, align 4
  %34 = call ptr @find_conversation(i32 noundef %24, ptr noundef %26, ptr noundef @null_address, i32 noundef %30, i32 noundef %33, i32 noundef 0, i32 noundef 196608)
  store ptr %34, ptr %3, align 8
  br label %35

35:                                               ; preds = %21, %18
  %36 = load ptr, ptr %3, align 8
  call void @llvm.lifetime.end.p0(i64 8, ptr %3) #18
  ret ptr %36
}

; Function Attrs: null_pointer_is_valid sspstrong uwtable
define internal ptr @looks_like_rpc_reply(ptr noundef %0, ptr noundef %1, i32 noundef %2) #0 {
  %4 = alloca ptr, align 8
  %5 = alloca ptr, align 8
  %6 = alloca ptr, align 8
  %7 = alloca i32, align 4
  %8 = alloca i32, align 4
  %9 = alloca ptr, align 8
  %10 = alloca ptr, align 8
  %11 = alloca ptr, align 8
  %12 = alloca i32, align 4
  store ptr %0, ptr %5, align 8
  store ptr %1, ptr %6, align 8
  store i32 %2, ptr %7, align 4
  call void @llvm.lifetime.start.p0(i64 4, ptr %8) #18
  call void @llvm.lifetime.start.p0(i64 8, ptr %9) #18
  call void @llvm.lifetime.start.p0(i64 8, ptr %10) #18
  call void @llvm.lifetime.start.p0(i64 8, ptr %11) #18
  %13 = load ptr, ptr %5, align 8
  %14 = load i32, ptr %7, align 4
  %15 = call i32 @tvb_get_ntohl(ptr noundef %13, i32 noundef %14)
  store i32 %15, ptr %8, align 4
  %16 = load ptr, ptr %6, align 8
  %17 = call ptr @find_conversation_for_reply(ptr noundef %16)
  store ptr %17, ptr %9, align 8
  %18 = load ptr, ptr %9, align 8
  %19 = icmp ne ptr %18, null
  br i1 %19, label %20, label %34

20:                                               ; preds = %3
  %21 = load ptr, ptr %9, align 8
  %22 = load i32, ptr @proto_rpc, align 4
  %23 = call ptr @conversation_get_proto_data(ptr noundef %21, i32 noundef %22)
  store ptr %23, ptr %10, align 8
  %24 = load ptr, ptr %10, align 8
  %25 = icmp ne ptr %24, null
  br i1 %25, label %26, label %32

26:                                               ; preds = %20
  %27 = load ptr, ptr %10, align 8
  %28 = getelementptr inbounds nuw %struct._rpc_conv_info_t, ptr %27, i32 0, i32 0
  %29 = load ptr, ptr %28, align 8
  %30 = load i32, ptr %8, align 4
  %31 = call ptr @wmem_tree_lookup32(ptr noundef %29, i32 noundef %30)
  store ptr %31, ptr %11, align 8
  br label %33

32:                                               ; preds = %20
  store ptr null, ptr %11, align 8
  br label %33

33:                                               ; preds = %32, %26
  br label %35

34:                                               ; preds = %3
  store ptr null, ptr %10, align 8
  store ptr null, ptr %11, align 8
  br label %35

35:                                               ; preds = %34, %33
  %36 = load ptr, ptr %11, align 8
  %37 = icmp eq ptr %36, null
  br i1 %37, label %38, label %98

38:                                               ; preds = %35
  %39 = load i8, ptr @rpc_find_fragment_start, align 1, !range !6, !noundef !7
  %40 = trunc i8 %39 to i1
  br i1 %40, label %41, label %46

41:                                               ; preds = %38
  %42 = load ptr, ptr %6, align 8
  %43 = getelementptr inbounds nuw %struct._packet_info, ptr %42, i32 0, i32 23
  %44 = load i32, ptr %43, align 8
  %45 = icmp ne i32 %44, 2
  br i1 %45, label %46, label %57

46:                                               ; preds = %41, %38
  %47 = load ptr, ptr %6, align 8
  %48 = getelementptr inbounds nuw %struct._packet_info, ptr %47, i32 0, i32 23
  %49 = load i32, ptr %48, align 8
  %50 = icmp ne i32 %49, 10
  br i1 %50, label %51, label %57

51:                                               ; preds = %46
  %52 = load ptr, ptr %6, align 8
  %53 = getelementptr inbounds nuw %struct._packet_info, ptr %52, i32 0, i32 23
  %54 = load i32, ptr %53, align 8
  %55 = icmp ne i32 %54, 12
  br i1 %55, label %56, label %57

56:                                               ; preds = %51
  store ptr null, ptr %4, align 8
  store i32 1, ptr %12, align 4
  br label %102

57:                                               ; preds = %51, %46, %41
  %58 = load ptr, ptr %9, align 8
  %59 = icmp eq ptr %58, null
  br i1 %59, label %60, label %63

60:                                               ; preds = %57
  %61 = load ptr, ptr %6, align 8
  %62 = call ptr @new_conversation_for_reply(ptr noundef %61)
  store ptr %62, ptr %9, align 8
  br label %63

63:                                               ; preds = %60, %57
  %64 = load ptr, ptr %10, align 8
  %65 = icmp eq ptr %64, null
  br i1 %65, label %66, label %76

66:                                               ; preds = %63
  %67 = call ptr @wmem_file_scope()
  %68 = call noalias ptr @wmem_alloc(ptr noundef %67, i64 noundef 8) #22
  store ptr %68, ptr %10, align 8
  %69 = call ptr @wmem_file_scope()
  %70 = call noalias ptr @wmem_tree_new(ptr noundef %69)
  %71 = load ptr, ptr %10, align 8
  %72 = getelementptr inbounds nuw %struct._rpc_conv_info_t, ptr %71, i32 0, i32 0
  store ptr %70, ptr %72, align 8
  %73 = load ptr, ptr %9, align 8
  %74 = load i32, ptr @proto_rpc, align 4
  %75 = load ptr, ptr %10, align 8
  call void @conversation_add_proto_data(ptr noundef %73, i32 noundef %74, ptr noundef %75)
  br label %76

76:                                               ; preds = %66, %63
  %77 = call ptr @wmem_file_scope()
  %78 = call noalias ptr @wmem_alloc0(ptr noundef %77, i64 noundef 64) #22
  store ptr %78, ptr %11, align 8
  %79 = load ptr, ptr %6, align 8
  %80 = getelementptr inbounds nuw %struct._packet_info, ptr %79, i32 0, i32 3
  %81 = load i32, ptr %80, align 4
  %82 = load ptr, ptr %11, align 8
  %83 = getelementptr inbounds nuw %struct._rpc_call_info_value, ptr %82, i32 0, i32 1
  store i32 %81, ptr %83, align 4
  %84 = load i32, ptr %8, align 4
  %85 = load ptr, ptr %11, align 8
  %86 = getelementptr inbounds nuw %struct._rpc_call_info_value, ptr %85, i32 0, i32 5
  store i32 %84, ptr %86, align 4
  %87 = load ptr, ptr %11, align 8
  %88 = getelementptr inbounds nuw %struct._rpc_call_info_value, ptr %87, i32 0, i32 6
  store i32 1, ptr %88, align 8
  %89 = load ptr, ptr %11, align 8
  %90 = getelementptr inbounds nuw %struct._rpc_call_info_value, ptr %89, i32 0, i32 10
  %91 = load ptr, ptr %6, align 8
  %92 = getelementptr inbounds nuw %struct._packet_info, ptr %91, i32 0, i32 4
  call void @llvm.memcpy.p0.p0.i64(ptr align 8 %90, ptr align 8 %92, i64 16, i1 false)
  %93 = load ptr, ptr %10, align 8
  %94 = getelementptr inbounds nuw %struct._rpc_conv_info_t, ptr %93, i32 0, i32 0
  %95 = load ptr, ptr %94, align 8
  %96 = load i32, ptr %8, align 4
  %97 = load ptr, ptr %11, align 8
  call void @wmem_tree_insert32(ptr noundef %95, i32 noundef %96, ptr noundef %97)
  br label %98

98:                                               ; preds = %76, %35
  %99 = load ptr, ptr %11, align 8
  %100 = getelementptr inbounds nuw %struct._rpc_call_info_value, ptr %99, i32 0, i32 9
  store i8 0, ptr %100, align 4
  %101 = load ptr, ptr %11, align 8
  store ptr %101, ptr %4, align 8
  store i32 1, ptr %12, align 4
  br label %102

102:                                              ; preds = %98, %56
  call void @llvm.lifetime.end.p0(i64 8, ptr %11) #18
  call void @llvm.lifetime.end.p0(i64 8, ptr %10) #18
  call void @llvm.lifetime.end.p0(i64 8, ptr %9) #18
  call void @llvm.lifetime.end.p0(i64 4, ptr %8) #18
  %103 = load ptr, ptr %4, align 8
  ret ptr %103
}