; Function Attrs: null_pointer_is_valid sspstrong uwtable
define internal fastcc ptr @looks_like_rpc_reply(ptr noundef %0, ptr noundef %1, i32 noundef %2) unnamed_addr #0 {
  %4 = tail call i32 @tvb_get_ntohl(ptr noundef %0, i32 noundef %2)
  %5 = getelementptr inbounds nuw i8, ptr %1, i64 280
  %6 = load i32, ptr %5, align 8
  switch i32 %6, label %9 [
    i32 2, label %7
    i32 10, label %7
    i32 12, label %7
  ]

7:                                                ; preds = %3, %3, %3
  %8 = tail call ptr @find_conversation_pinfo(ptr noundef %1, i32 noundef 0)
  br label %find_conversation_for_reply.exit

9:                                                ; preds = %3
  %10 = getelementptr inbounds nuw i8, ptr %1, i64 20
  %11 = load i32, ptr %10, align 4
  %12 = getelementptr inbounds nuw i8, ptr %1, i64 232
  %13 = tail call i32 @conversation_pt_to_conversation_type(i32 noundef %6)
  %14 = getelementptr inbounds nuw i8, ptr %1, i64 284
  %15 = load i32, ptr %14, align 4
  %16 = tail call ptr @find_conversation(i32 noundef %11, ptr noundef nonnull %12, ptr noundef nonnull @null_address, i32 noundef %13, i32 noundef %15, i32 noundef 0, i32 noundef 196608)
  br label %find_conversation_for_reply.exit

find_conversation_for_reply.exit:                 ; preds = %7, %9
  %.0.i = phi ptr [ %8, %7 ], [ %16, %9 ]
  %.not = icmp eq ptr %.0.i, null
  br i1 %.not, label %.thread, label %17

17:                                               ; preds = %find_conversation_for_reply.exit
  %18 = load i32, ptr @proto_rpc, align 4
  %19 = tail call ptr @conversation_get_proto_data(ptr noundef nonnull %.0.i, i32 noundef %18)
  %.not39 = icmp eq ptr %19, null
  br i1 %.not39, label %.thread, label %20

20:                                               ; preds = %17
  %21 = load ptr, ptr %19, align 8
  %22 = tail call ptr @wmem_tree_lookup32(ptr noundef %21, i32 noundef %4)
  %23 = icmp eq ptr %22, null
  br i1 %23, label %.thread, label %77

.thread:                                          ; preds = %find_conversation_for_reply.exit, %17, %20
  %.03046 = phi ptr [ %19, %20 ], [ null, %17 ], [ null, %find_conversation_for_reply.exit ]
  %24 = load i8, ptr @rpc_find_fragment_start, align 1, !range !6, !noundef !7
  %25 = trunc nuw i8 %24 to i1
  %26 = load i32, ptr %5, align 8
  %.not40 = icmp eq i32 %26, 2
  %or.cond = select i1 %25, i1 %.not40, i1 false
  br i1 %or.cond, label %27, label %thread-pre-split

thread-pre-split:                                 ; preds = %.thread
  switch i32 %26, label %79 [
    i32 10, label %27
    i32 12, label %27
  ]

27:                                               ; preds = %.thread, %thread-pre-split, %thread-pre-split
  %28 = phi i32 [ %26, %thread-pre-split ], [ %26, %thread-pre-split ], [ 2, %.thread ]
  br i1 %.not, label %29, label %new_conversation_for_reply.exit

29:                                               ; preds = %27
  %30 = getelementptr inbounds nuw i8, ptr %1, i64 20
  %31 = load i32, ptr %30, align 4
  %32 = getelementptr inbounds nuw i8, ptr %1, i64 284
  switch i32 %28, label %54 [
    i32 2, label %33
    i32 10, label %40
    i32 12, label %47
  ]

33:                                               ; preds = %29
  %34 = getelementptr inbounds nuw i8, ptr %1, i64 208
  %35 = getelementptr inbounds nuw i8, ptr %1, i64 232
  %36 = load i32, ptr %32, align 4
  %37 = getelementptr inbounds nuw i8, ptr %1, i64 288
  %38 = load i32, ptr %37, align 8
  %39 = tail call ptr @conversation_new(i32 noundef %31, ptr noundef nonnull %34, ptr noundef nonnull %35, i32 noundef 2, i32 noundef %36, i32 noundef %38, i32 noundef 0)
  br label %new_conversation_for_reply.exit

40:                                               ; preds = %29
  %41 = getelementptr inbounds nuw i8, ptr %1, i64 208
  %42 = getelementptr inbounds nuw i8, ptr %1, i64 232
  %43 = load i32, ptr %32, align 4
  %44 = getelementptr inbounds nuw i8, ptr %1, i64 288
  %45 = load i32, ptr %44, align 8
  %46 = tail call ptr @conversation_new(i32 noundef %31, ptr noundef nonnull %41, ptr noundef nonnull %42, i32 noundef 14, i32 noundef %43, i32 noundef %45, i32 noundef 0)
  br label %new_conversation_for_reply.exit

47:                                               ; preds = %29
  %48 = getelementptr inbounds nuw i8, ptr %1, i64 208
  %49 = getelementptr inbounds nuw i8, ptr %1, i64 232
  %50 = load i32, ptr %32, align 4
  %51 = getelementptr inbounds nuw i8, ptr %1, i64 288
  %52 = load i32, ptr %51, align 8
  %53 = tail call ptr @conversation_new(i32 noundef %31, ptr noundef nonnull %48, ptr noundef nonnull %49, i32 noundef 29, i32 noundef %50, i32 noundef %52, i32 noundef 0)
  br label %new_conversation_for_reply.exit

54:                                               ; preds = %29
  %55 = getelementptr inbounds nuw i8, ptr %1, i64 232
  %56 = tail call i32 @conversation_pt_to_conversation_type(i32 noundef %28)
  %57 = load i32, ptr %32, align 4
  %58 = tail call ptr @conversation_new(i32 noundef %31, ptr noundef nonnull %55, ptr noundef nonnull @null_address, i32 noundef %56, i32 noundef %57, i32 noundef 0, i32 noundef 3)
  br label %new_conversation_for_reply.exit

new_conversation_for_reply.exit:                  ; preds = %54, %47, %40, %33, %27
  %.032 = phi ptr [ %.0.i, %27 ], [ %58, %54 ], [ %53, %47 ], [ %46, %40 ], [ %39, %33 ]
  %59 = icmp eq ptr %.03046, null
  br i1 %59, label %60, label %66

60:                                               ; preds = %new_conversation_for_reply.exit
  %61 = tail call ptr @wmem_file_scope()
  %62 = tail call noalias dereferenceable_or_null(8) ptr @wmem_alloc(ptr noundef %61, i64 noundef 8) #20
  %63 = tail call ptr @wmem_file_scope()
  %64 = tail call noalias ptr @wmem_tree_new(ptr noundef %63)
  store ptr %64, ptr %62, align 8
  %65 = load i32, ptr @proto_rpc, align 4
  tail call void @conversation_add_proto_data(ptr noundef %.032, i32 noundef %65, ptr noundef %62)
  br label %66

66:                                               ; preds = %60, %new_conversation_for_reply.exit
  %.131 = phi ptr [ %62, %60 ], [ %.03046, %new_conversation_for_reply.exit ]
  %67 = tail call ptr @wmem_file_scope()
  %68 = tail call noalias dereferenceable_or_null(64) ptr @wmem_alloc0(ptr noundef %67, i64 noundef 64) #20
  %69 = getelementptr inbounds nuw i8, ptr %1, i64 20
  %70 = load i32, ptr %69, align 4
  %71 = getelementptr inbounds nuw i8, ptr %68, i64 4
  store i32 %70, ptr %71, align 4
  %72 = getelementptr inbounds nuw i8, ptr %68, i64 20
  store i32 %4, ptr %72, align 4
  %73 = getelementptr inbounds nuw i8, ptr %68, i64 24
  store i32 1, ptr %73, align 8
  %74 = getelementptr inbounds nuw i8, ptr %68, i64 40
  %75 = getelementptr inbounds nuw i8, ptr %1, i64 24
  tail call void @llvm.memcpy.p0.p0.i64(ptr noundef nonnull align 8 dereferenceable(16) %74, ptr noundef nonnull align 8 dereferenceable(16) %75, i64 16, i1 false)
  %76 = load ptr, ptr %.131, align 8
  tail call void @wmem_tree_insert32(ptr noundef %76, i32 noundef %4, ptr noundef %68)
  br label %77

77:                                               ; preds = %66, %20
  %.1 = phi ptr [ %68, %66 ], [ %22, %20 ]
  %78 = getelementptr inbounds nuw i8, ptr %.1, i64 36
  store i8 0, ptr %78, align 4
  br label %79

79:                                               ; preds = %thread-pre-split, %77
  %.033 = phi ptr [ %.1, %77 ], [ null, %thread-pre-split ]
  ret ptr %.033
}